target datalayout = "e-m:e-p270:32:32-p271:32:32-p272:64:64-i64:64-i128:128-f80:128-n8:16:32:64-S128"
target triple = "x86_64-pc-linux-gnu"

; Function Attrs: mustprogress uwtable
define hidden void @_ZN4ncnn22warpaffine_bilinear_c2EPKhiiPhiiPKfij(ptr noundef %0, i32 noundef %1, i32 noundef %2, ptr noundef %3, i32 noundef %4, i32 noundef %5, ptr noundef %6, i32 noundef %7, i32 noundef %8) #3 {
  %10 = alloca ptr, align 8
  %11 = alloca i32, align 4
  %12 = alloca i32, align 4
  %13 = alloca ptr, align 8
  %14 = alloca i32, align 4
  %15 = alloca i32, align 4
  %16 = alloca ptr, align 8
  %17 = alloca i32, align 4
  %18 = alloca i32, align 4
  store ptr %0, ptr %10, align 8
  store i32 %1, ptr %11, align 4
  store i32 %2, ptr %12, align 4
  store ptr %3, ptr %13, align 8
  store i32 %4, ptr %14, align 4
  store i32 %5, ptr %15, align 4
  store ptr %6, ptr %16, align 8
  store i32 %7, ptr %17, align 4
  store i32 %8, ptr %18, align 4
  %19 = load ptr, ptr %10, align 8
  %20 = load i32, ptr %11, align 4
  %21 = load i32, ptr %12, align 4
  %22 = load i32, ptr %11, align 4
  %23 = mul nsw i32 %22, 2
  %24 = load ptr, ptr %13, align 8
  %25 = load i32, ptr %14, align 4
  %26 = load i32, ptr %15, align 4
  %27 = load i32, ptr %14, align 4
  %28 = mul nsw i32 %27, 2
  %29 = load ptr, ptr %16, align 8
  %30 = load i32, ptr %17, align 4
  %31 = load i32, ptr %18, align 4
  call void @_ZN4ncnn22warpaffine_bilinear_c2EPKhiiiPhiiiPKfij(ptr noundef %19, i32 noundef %20, i32 noundef %21, i32 noundef %23, ptr noundef %24, i32 noundef %25, i32 noundef %26, i32 noundef %28, ptr noundef %29, i32 noundef %30, i32 noundef %31)
  ret void
}

; Function Attrs: mustprogress uwtable
define hidden void @_ZN4ncnn22warpaffine_bilinear_c1EPKhiiPhiiPKfij(ptr noundef %0, i32 noundef %1, i32 noundef %2, ptr noundef %3, i32 noundef %4, i32 noundef %5, ptr noundef %6, i32 noundef %7, i32 noundef %8) #3 {
  %10 = alloca ptr, align 8
  %11 = alloca i32, align 4
  %12 = alloca i32, align 4
  %13 = alloca ptr, align 8
  %14 = alloca i32, align 4
  %15 = alloca i32, align 4
  %16 = alloca ptr, align 8
  %17 = alloca i32, align 4
  %18 = alloca i32, align 4
  store ptr %0, ptr %10, align 8
  store i32 %1, ptr %11, align 4
  store i32 %2, ptr %12, align 4
  store ptr %3, ptr %13, align 8
  store i32 %4, ptr %14, align 4
  store i32 %5, ptr %15, align 4
  store ptr %6, ptr %16, align 8
  store i32 %7, ptr %17, align 4
  store i32 %8, ptr %18, align 4
  %19 = load ptr, ptr %10, align 8
  %20 = load i32, ptr %11, align 4
  %21 = load i32, ptr %12, align 4
  %22 = load i32, ptr %11, align 4
  %23 = load ptr, ptr %13, align 8
  %24 = load i32, ptr %14, align 4
  %25 = load i32, ptr %15, align 4
  %26 = load i32, ptr %14, align 4
  %27 = load ptr, ptr %16, align 8
  %28 = load i32, ptr %17, align 4
  %29 = load i32, ptr %18, align 4
  call void @_ZN4ncnn22warpaffine_bilinear_c1EPKhiiiPhiiiPKfij(ptr noundef %19, i32 noundef %20, i32 noundef %21, i32 noundef %22, ptr noundef %23, i32 noundef %24, i32 noundef %25, i32 noundef %26, ptr noundef %27, i32 noundef %28, i32 noundef %29)
  ret void
}

; Function Attrs: mustprogress uwtable
define hidden void @_ZN4ncnn28warpaffine_bilinear_yuv420spEPKhiiPhiiPKfij(ptr noundef %0, i32 noundef %1, i32 noundef %2, ptr noundef %3, i32 noundef %4, i32 noundef %5, ptr noundef %6, i32 noundef %7, i32 noundef %8) #3 {
  %10 = alloca ptr, align 8
  %11 = alloca i32, align 4
  %12 = alloca i32, align 4
  %13 = alloca ptr, align 8
  %14 = alloca i32, align 4
  %15 = alloca i32, align 4
  %16 = alloca ptr, align 8
  %17 = alloca i32, align 4
  %18 = alloca i32, align 4
  %19 = alloca ptr, align 8
  %20 = alloca i32, align 4
  %21 = alloca i32, align 4
  %22 = alloca ptr, align 8
  %23 = alloca ptr, align 8
  %24 = alloca ptr, align 8
  %25 = alloca ptr, align 8
  %26 = alloca [6 x float], align 16
  %27 = alloca ptr, align 8
  %28 = alloca ptr, align 8
  store ptr %0, ptr %10, align 8
  store i32 %1, ptr %11, align 4
  store i32 %2, ptr %12, align 4
  store ptr %3, ptr %13, align 8
  store i32 %4, ptr %14, align 4
  store i32 %5, ptr %15, align 4
  store ptr %6, ptr %16, align 8
  store i32 %7, ptr %17, align 4
  store i32 %8, ptr %18, align 4
  store ptr %18, ptr %19, align 8
  store ptr %20, ptr %22, align 8
  store ptr %21, ptr %23, align 8
  %29 = load ptr, ptr %19, align 8
  %30 = getelementptr inbounds i8, ptr %29, i64 0
  %31 = load i8, ptr %30, align 1
  %32 = load ptr, ptr %22, align 8
  %33 = getelementptr inbounds i8, ptr %32, i64 0
  store i8 %31, ptr %33, align 1
  %34 = load ptr, ptr %19, align 8
  %35 = getelementptr inbounds i8, ptr %34, i64 1
  %36 = load i8, ptr %35, align 1
  %37 = load ptr, ptr %23, align 8
  %38 = getelementptr inbounds i8, ptr %37, i64 0
  store i8 %36, ptr %38, align 1
  %39 = load ptr, ptr %19, align 8
  %40 = getelementptr inbounds i8, ptr %39, i64 2
  %41 = load i8, ptr %40, align 1
  %42 = load ptr, ptr %23, align 8
  %43 = getelementptr inbounds i8, ptr %42, i64 1
  store i8 %41, ptr %43, align 1
  %44 = load ptr, ptr %10, align 8
  store ptr %44, ptr %24, align 8
  %45 = load ptr, ptr %13, align 8
  store ptr %45, ptr %25, align 8
  %46 = load ptr, ptr %24, align 8
  %47 = load i32, ptr %11, align 4
  %48 = load i32, ptr %12, align 4
  %49 = load ptr, ptr %25, align 8
  %50 = load i32, ptr %14, align 4
  %51 = load i32, ptr %15, align 4
  %52 = load ptr, ptr %16, align 8
  %53 = load i32, ptr %17, align 4
  %54 = load i32, ptr %20, align 4
  call void @_ZN4ncnn22warpaffine_bilinear_c1EPKhiiPhiiPKfij(ptr noundef %46, i32 noundef %47, i32 noundef %48, ptr noundef %49, i32 noundef %50, i32 noundef %51, ptr noundef %52, i32 noundef %53, i32 noundef %54)
  %55 = load ptr, ptr %16, align 8
  %56 = getelementptr inbounds float, ptr %55, i64 0
  %57 = load float, ptr %56, align 4
  store float %57, ptr %26, align 4
  %58 = getelementptr inbounds float, ptr %26, i64 1
  %59 = load ptr, ptr %16, align 8
  %60 = getelementptr inbounds float, ptr %59, i64 1
  %61 = load float, ptr %60, align 4
  store float %61, ptr %58, align 4
  %62 = getelementptr inbounds float, ptr %26, i64 2
  %63 = load ptr, ptr %16, align 8
  %64 = getelementptr inbounds float, ptr %63, i64 2
  %65 = load float, ptr %64, align 4
  %66 = fdiv fast float %65, 2.000000e+00
  store float %66, ptr %62, align 4
  %67 = getelementptr inbounds float, ptr %26, i64 3
  %68 = load ptr, ptr %16, align 8
  %69 = getelementptr inbounds float, ptr %68, i64 3
  %70 = load float, ptr %69, align 4
  store float %70, ptr %67, align 4
  %71 = getelementptr inbounds float, ptr %26, i64 4
  %72 = load ptr, ptr %16, align 8
  %73 = getelementptr inbounds float, ptr %72, i64 4
  %74 = load float, ptr %73, align 4
  store float %74, ptr %71, align 4
  %75 = getelementptr inbounds float, ptr %26, i64 5
  %76 = load ptr, ptr %16, align 8
  %77 = getelementptr inbounds float, ptr %76, i64 5
  %78 = load float, ptr %77, align 4
  %79 = fdiv fast float %78, 2.000000e+00
  store float %79, ptr %75, align 4
  %80 = load ptr, ptr %10, align 8
  %81 = load i32, ptr %11, align 4
  %82 = load i32, ptr %12, align 4
  %83 = mul nsw i32 %81, %82
  %84 = sext i32 %83 to i64
  %85 = getelementptr inbounds i8, ptr %80, i64 %84
  store ptr %85, ptr %27, align 8
  %86 = load ptr, ptr %13, align 8
  %87 = load i32, ptr %14, align 4
  %88 = load i32, ptr %15, align 4
  %89 = mul nsw i32 %87, %88
  %90 = sext i32 %89 to i64
  %91 = getelementptr inbounds i8, ptr %86, i64 %90
  store ptr %91, ptr %28, align 8
  %92 = load ptr, ptr %27, align 8
  %93 = load i32, ptr %11, align 4
  %94 = sdiv i32 %93, 2
  %95 = load i32, ptr %12, align 4
  %96 = sdiv i32 %95, 2
  %97 = load ptr, ptr %28, align 8
  %98 = load i32, ptr %14, align 4
  %99 = sdiv i32 %98, 2
  %100 = load i32, ptr %15, align 4
  %101 = sdiv i32 %100, 2
  %102 = getelementptr inbounds [6 x float], ptr %26, i64 0, i64 0
  %103 = load i32, ptr %17, align 4
  %104 = load i32, ptr %21, align 4
  call void @_ZN4ncnn22warpaffine_bilinear_c2EPKhiiPhiiPKfij(ptr noundef %92, i32 noundef %94, i32 noundef %96, ptr noundef %97, i32 noundef %99, i32 noundef %101, ptr noundef %102, i32 noundef %103, i32 noundef %104)
  ret void
}