; Function Attrs: mustprogress uwtable
define hidden void @_ZN4ncnn28warpaffine_bilinear_yuv420spEPKhiiPhiiPKfij(ptr nocapture noundef readonly %0, i32 noundef %1, i32 noundef %2, ptr nocapture noundef %3, i32 noundef %4, i32 noundef %5, ptr nocapture noundef readonly %6, i32 noundef %7, i32 noundef %8) local_unnamed_addr #4 {
  %10 = alloca [6 x float], align 16
  %.sroa.2.0.extract.shift = lshr i32 %8, 8
  %.sroa.034.0.insert.ext = and i32 %8, 255
  tail call void @_ZN4ncnn22warpaffine_bilinear_c1EPKhiiiPhiiiPKfij(ptr noundef readonly %0, i32 noundef %1, i32 noundef %2, i32 noundef %1, ptr noundef %3, i32 noundef %4, i32 noundef %5, i32 noundef %4, ptr noundef readonly %6, i32 noundef %7, i32 noundef %.sroa.034.0.insert.ext)
  %11 = load float, ptr %6, align 4
  store float %11, ptr %10, align 16
  %12 = getelementptr inbounds i8, ptr %10, i64 4
  %13 = getelementptr inbounds i8, ptr %6, i64 4
  %14 = load float, ptr %13, align 4
  store float %14, ptr %12, align 4
  %15 = getelementptr inbounds i8, ptr %10, i64 8
  %16 = getelementptr inbounds i8, ptr %6, i64 8
  %17 = load float, ptr %16, align 4
  %18 = fmul fast float %17, 5.000000e-01
  store float %18, ptr %15, align 8
  %19 = getelementptr inbounds i8, ptr %10, i64 12
  %20 = getelementptr inbounds i8, ptr %6, i64 12
  %21 = load float, ptr %20, align 4
  store float %21, ptr %19, align 4
  %22 = getelementptr inbounds i8, ptr %10, i64 16
  %23 = getelementptr inbounds i8, ptr %6, i64 16
  %24 = load float, ptr %23, align 4
  store float %24, ptr %22, align 16
  %25 = getelementptr inbounds i8, ptr %10, i64 20
  %26 = getelementptr inbounds i8, ptr %6, i64 20
  %27 = load float, ptr %26, align 4
  %28 = fmul fast float %27, 5.000000e-01
  store float %28, ptr %25, align 4
  %29 = mul nsw i32 %2, %1
  %30 = sext i32 %29 to i64
  %31 = getelementptr inbounds i8, ptr %0, i64 %30
  %32 = mul nsw i32 %5, %4
  %33 = sext i32 %32 to i64
  %34 = getelementptr inbounds i8, ptr %3, i64 %33
  %35 = sdiv i32 %1, 2
  %36 = sdiv i32 %2, 2
  %37 = sdiv i32 %4, 2
  %38 = sdiv i32 %5, 2
  %.sroa.036.0.insert.insert = and i32 %.sroa.2.0.extract.shift, 65535
  %39 = shl nsw i32 %35, 1
  %40 = shl nsw i32 %37, 1
  call void @_ZN4ncnn22warpaffine_bilinear_c2EPKhiiiPhiiiPKfij(ptr noundef readonly %31, i32 noundef %35, i32 noundef %36, i32 noundef %39, ptr noundef %34, i32 noundef %37, i32 noundef %38, i32 noundef %40, ptr noundef nonnull readonly %10, i32 noundef %7, i32 noundef %.sroa.036.0.insert.insert)
  ret void
}